target datalayout = "e-m:e-p270:32:32-p271:32:32-p272:64:64-i64:64-i128:128-f80:128-n8:16:32:64-S128"
target triple = "x86_64-pc-linux-gnu"

; Function Attrs: nounwind uwtable
define ptr @Abc_NtkIvyRewriteSeq(ptr noundef %0, i32 noundef %1, i32 noundef %2) #0 {
  %4 = alloca ptr, align 8
  %5 = alloca ptr, align 8
  %6 = alloca i32, align 4
  %7 = alloca i32, align 4
  %8 = alloca ptr, align 8
  %9 = alloca ptr, align 8
  %10 = alloca i32, align 4
  store ptr %0, ptr %5, align 8, !tbaa !3
  store i32 %1, ptr %6, align 4, !tbaa !8
  store i32 %2, ptr %7, align 4, !tbaa !8
  call void @llvm.lifetime.start.p0(i64 8, ptr %8) #11
  call void @llvm.lifetime.start.p0(i64 8, ptr %9) #11
  %11 = load ptr, ptr %5, align 8, !tbaa !3
  %12 = call ptr @Abc_NtkIvyBefore(ptr noundef %11, i32 noundef 1, i32 noundef 1)
  store ptr %12, ptr %9, align 8, !tbaa !10
  %13 = load ptr, ptr %9, align 8, !tbaa !10
  %14 = icmp eq ptr %13, null
  br i1 %14, label %15, label %16

15:                                               ; preds = %3
  store ptr null, ptr %4, align 8
  store i32 1, ptr %10, align 4
  br label %26

16:                                               ; preds = %3
  %17 = load ptr, ptr %9, align 8, !tbaa !10
  %18 = load i32, ptr %6, align 4, !tbaa !8
  %19 = load i32, ptr %7, align 4, !tbaa !8
  %20 = call i32 @Ivy_ManRewriteSeq(ptr noundef %17, i32 noundef %18, i32 noundef %19)
  %21 = load ptr, ptr %5, align 8, !tbaa !3
  %22 = load ptr, ptr %9, align 8, !tbaa !10
  %23 = call ptr @Abc_NtkIvyAfter(ptr noundef %21, ptr noundef %22, i32 noundef 1, i32 noundef 0)
  store ptr %23, ptr %8, align 8, !tbaa !3
  %24 = load ptr, ptr %9, align 8, !tbaa !10
  call void @Ivy_ManStop(ptr noundef %24)
  %25 = load ptr, ptr %8, align 8, !tbaa !3
  store ptr %25, ptr %4, align 8
  store i32 1, ptr %10, align 4
  br label %26

26:                                               ; preds = %16, %15
  call void @llvm.lifetime.end.p0(i64 8, ptr %9) #11
  call void @llvm.lifetime.end.p0(i64 8, ptr %8) #11
  %27 = load ptr, ptr %4, align 8
  ret ptr %27
}